(dp0
S'cookies'
p1
(dp2
S'wxloadtime'
p3
S'1558330435_expired'
p4
sS'webwx_data_ticket'
p5
S'gSfaChoRRckJL14T2yrgWsdz'
p6
sS'wxuin'
p7
S'456577804'
p8
sS'login_frequency'
p9
S'2'
p10
sS'MM_WX_NOTIFY_STATE'
p11
S'1'
p12
sS'MM_WX_SOUND_STATE'
p13
g12
sS'webwx_auth_ticket'
p14
S'CIsBEKKikOkOGoABkHQbeiwAl+1SlE4Q6UabtYAXvm8Fz3JY77EwTOcq/JSwYtcbNByDiW5f3qSZL24Im4HuB4ungeoGP2DB2fnst6WeISncAbloCQfsCi8b2rYLjO8yiU5EpOkeLYXEeOAFph8Q7mhAJx3ggZSjAMqM85nltX/RmvIUx3FqmOBeNkk='
p15
sS'last_wxuin'
p16
S'456577804'
p17
sS'webwxuvid'
p18
S'05f901c0b296449fc666c3e50886523797bc4ec3c2586f63cd80067ffc2fd9841e202d99e2a5eceb2238a48e950e233e'
p19
sS'wxpluginkey'
p20
S'1558328642'
p21
sS'wxsid'
p22
S'ak5O/4Ytr4y8j67Q'
p23
sS'mm_lang'
p24
S'zh_CN'
p25
ssS'version'
p26
S'1.3.8'
p27
sS'storage'
p28
(dp29
S'userName'
p30
V@fdd7917ba9016e8fc36e454f84f252e2dad9474dd5b4a36711783aea5b4a390b
p31
sS'lastInputUserName'
p32
NsS'memberList'
p33
ccopy_reg
_reconstructor
p34
(citchat.storage.templates
ContactList
p35
c__builtin__
list
p36
(lp37
g34
(citchat.storage.templates
User
p38
c__builtin__
dict
p39
(dp40
S'UserName'
p41
g31
sS'City'
p42
S''
p43
sS'DisplayName'
p44
g43
sS'UniFriend'
p45
I0
sS'OwnerUin'
p46
I0
sS'MemberList'
p47
g34
(g35
g36
(lp48
tp49
Rp50
I1
bsS'PYQuanPin'
p51
V
p52
sS'RemarkPYInitial'
p53
g52
sS'Uin'
p54
I456577804
sS'AppAccountFlag'
p55
I0
sS'VerifyFlag'
p56
I0
sS'Province'
p57
g43
sS'KeyWord'
p58
g43
sS'RemarkName'
p59
g52
sS'PYInitial'
p60
g52
sS'ChatRoomId'
p61
I0
sS'HideInputBarFlag'
p62
I0
sVHeadImgFlag
p63
I1
sS'EncryChatRoomId'
p64
g43
sS'AttrStatus'
p65
I0
sS'SnsFlag'
p66
I0
sS'MemberCount'
p67
I0
sVWebWxPluginSwitch
p68
I0
sS'Alias'
p69
g43
sS'Signature'
p70
g52
sS'ContactFlag'
p71
I0
sS'NickName'
p72
Vrobot
p73
sS'RemarkPYQuanPin'
p74
g52
sS'HeadImgUrl'
p75
V/cgi-bin/mmwebwx-bin/webwxgeticon?seq=360339999&username=@fdd7917ba9016e8fc36e454f84f252e2dad9474dd5b4a36711783aea5b4a390b&skey=@crypt_6d8a0cff_732e8a34914384461431cb2d0181bbbb
p76
sS'Sex'
p77
I2
sS'StarFriend'
p78
I0
sS'Statues'
p79
I0
stp80
Rp81
I1
bag34
(g38
g39
(dp82
VUserName
p83
V@7aadfc1a0f10795972c75c59f1870e65e15ec8a4a08130aa6e89ce1225bb4c44
p84
sVCity
p85
g52
sVSnsFlag
p86
I17
sVDisplayName
p87
g52
sVUniFriend
p88
I0
sVMemberCount
p89
I0
sVOwnerUin
p90
I0
sVMemberList
p91
g50
sVAlias
p92
g52
sVPYQuanPin
p93
Vweng
p94
sVSignature
p95
g52
sVRemarkPYInitial
p96
g52
sVContactFlag
p97
I3
sVUin
p98
I0
sVNickName
p99
Vweng
p100
sVAppAccountFlag
p101
I0
sVVerifyFlag
p102
I0
sVRemarkPYQuanPin
p103
g52
sVHeadImgUrl
p104
V/cgi-bin/mmwebwx-bin/webwxgeticon?seq=642661211&username=@7aadfc1a0f10795972c75c59f1870e65e15ec8a4a08130aa6e89ce1225bb4c44&skey=@crypt_6d8a0cff_732e8a34914384461431cb2d0181bbbb
p105
sVKeyWord
p106
g52
sVProvince
p107
g52
sVPYInitial
p108
VWENG
p109
sVRemarkName
p110
g52
sVStarFriend
p111
I0
sVSex
p112
I1
sVIsOwner
p113
I0
sVHideInputBarFlag
p114
I0
sVChatRoomId
p115
I0
sVEncryChatRoomId
p116
g52
sVAttrStatus
p117
I33655231
sVStatues
p118
I0
stp119
Rp120
I1
bag34
(g38
g39
(dp121
VUserName
p122
V@abdd846cbdea9fb3aed7bd20e2d83247cf431f27495cff02029319860cfbcdbe
p123
sVCity
p124
V\u4fe1\u9633
p125
sVSnsFlag
p126
I49
sVDisplayName
p127
g52
sVUniFriend
p128
I0
sVMemberCount
p129
I0
sVOwnerUin
p130
I0
sVMemberList
p131
g50
sVAlias
p132
g52
sVPYQuanPin
p133
Vfangyuanjili
p134
sVSignature
p135
V\u6ca1\u6709\u4ec0\u4e48\u80fd\u6c38\u5782\u4e0d\u673d
p136
sVRemarkPYInitial
p137
g52
sVContactFlag
p138
I2
sVUin
p139
I0
sVNickName
p140
V\u65b9\u5706\u51e0\u91cc
p141
sVAppAccountFlag
p142
I0
sVVerifyFlag
p143
I0
sVRemarkPYQuanPin
p144
g52
sVHeadImgUrl
p145
V/cgi-bin/mmwebwx-bin/webwxgeticon?seq=686662544&username=@abdd846cbdea9fb3aed7bd20e2d83247cf431f27495cff02029319860cfbcdbe&skey=@crypt_6d8a0cff_732e8a34914384461431cb2d0181bbbb
p146
sVKeyWord
p147
Vwan
p148
sVProvince
p149
V\u6cb3\u5357
p150
sVPYInitial
p151
VFYJL
p152
sVRemarkName
p153
g52
sVStarFriend
p154
I0
sVSex
p155
I1
sVIsOwner
p156
I0
sVHideInputBarFlag
p157
I0
sVChatRoomId
p158
I0
sVEncryChatRoomId
p159
g52
sVAttrStatus
p160
I103717
sVStatues
p161
I0
stp162
Rp163
I1
bag34
(g38
g39
(dp164
VUserName
p165
V@b8ec3c949d652faf5113829614d5a06fa74b6adfb8d1397e1437211411681a1a
p166
sVCity
p167
V\u676d\u5dde
p168
sVSnsFlag
p169
I17
sVDisplayName
p170
g52
sVUniFriend
p171
I0
sVMemberCount
p172
I0
sVOwnerUin
p173
I0
sVMemberList
p174
g50
sVAlias
p175
g52
sVPYQuanPin
p176
VDouble????
p177
sVSignature
p178
V\u9047\u826f\u4eba\u4e88\u541b\u6b22\u559c\u57ce\u000a\u6696\u8272\u6d6e\u4f59\u751f
p179
sVRemarkPYInitial
p180
g52
sVContactFlag
p181
I3
sVUin
p182
I0
sVNickName
p183
VDouble\u0e08\u0e38\u0e4a\u0e1a
p184
sVAppAccountFlag
p185
I0
sVVerifyFlag
p186
I0
sVRemarkPYQuanPin
p187
g52
sVHeadImgUrl
p188
V/cgi-bin/mmwebwx-bin/webwxgeticon?seq=667363772&username=@b8ec3c949d652faf5113829614d5a06fa74b6adfb8d1397e1437211411681a1a&skey=@crypt_6d8a0cff_732e8a34914384461431cb2d0181bbbb
p189
sVKeyWord
p190
g52
sVProvince
p191
V\u6d59\u6c5f
p192
sVPYInitial
p193
VDOUBLE????
p194
sVRemarkName
p195
g52
sVStarFriend
p196
I0
sVSex
p197
I2
sVIsOwner
p198
I0
sVHideInputBarFlag
p199
I0
sVChatRoomId
p200
I0
sVEncryChatRoomId
p201
g52
sVAttrStatus
p202
I102525
sVStatues
p203
I0
stp204
Rp205
I1
bag34
(g38
g39
(dp206
VUserName
p207
V@2c7dc87cdccc058ddd7751bf28d9c76ba06ea5a19d1733be2a229a1d4df23b19
p208
sVCity
p209
g52
sVSnsFlag
p210
I16
sVDisplayName
p211
g52
sVUniFriend
p212
I0
sVMemberCount
p213
I0
sVOwnerUin
p214
I0
sVMemberList
p215
g50
sVAlias
p216
g52
sVPYQuanPin
p217
Vxiaokeyaoyao
p218
sVSignature
p219
g52
sVRemarkPYInitial
p220
g52
sVContactFlag
p221
I3
sVUin
p222
I0
sVNickName
p223
V\u5c0f\u53efyaoyao
p224
sVAppAccountFlag
p225
I0
sVVerifyFlag
p226
I0
sVRemarkPYQuanPin
p227
g52
sVHeadImgUrl
p228
V/cgi-bin/mmwebwx-bin/webwxgeticon?seq=667362617&username=@2c7dc87cdccc058ddd7751bf28d9c76ba06ea5a19d1733be2a229a1d4df23b19&skey=@crypt_6d8a0cff_732e8a34914384461431cb2d0181bbbb
p229
sVKeyWord
p230
g52
sVProvince
p231
g52
sVPYInitial
p232
VXKYAOYAO
p233
sVRemarkName
p234
g52
sVStarFriend
p235
I0
sVSex
p236
I0
sVIsOwner
p237
I0
sVHideInputBarFlag
p238
I0
sVChatRoomId
p239
I0
sVEncryChatRoomId
p240
g52
sVAttrStatus
p241
I33686845
sVStatues
p242
I0
stp243
Rp244
I1
bag34
(g38
g39
(dp245
VUserName
p246
V@f5229c3e510b9f138f8bf91a29f5c18c045bbd4b15ea1145dee6254c7a945cfa
p247
sVCity
p248
V\u4fe1\u9633
p249
sVSnsFlag
p250
I1
sVDisplayName
p251
g52
sVUniFriend
p252
I0
sVMemberCount
p253
I0
sVOwnerUin
p254
I0
sVMemberList
p255
g50
sVAlias
p256
g52
sVPYQuanPin
p257
Vfengleilei13323970521
p258
sVSignature
p259
V\u5fc3\u6709\u731b\u864e\uff0c\u7ec6\u55c5\u8537\u8587
p260
sVRemarkPYInitial
p261
g52
sVContactFlag
p262
I3
sVUin
p263
I0
sVNickName
p264
V\u4e30\u78ca\u78ca-13323970521
p265
sVAppAccountFlag
p266
I0
sVVerifyFlag
p267
I0
sVRemarkPYQuanPin
p268
g52
sVHeadImgUrl
p269
V/cgi-bin/mmwebwx-bin/webwxgeticon?seq=660081808&username=@f5229c3e510b9f138f8bf91a29f5c18c045bbd4b15ea1145dee6254c7a945cfa&skey=@crypt_6d8a0cff_732e8a34914384461431cb2d0181bbbb
p270
sVKeyWord
p271
g52
sVProvince
p272
V\u6cb3\u5357
p273
sVPYInitial
p274
VFLL13323970521
p275
sVRemarkName
p276
g52
sVStarFriend
p277
I0
sVSex
p278
I1
sVIsOwner
p279
I0
sVHideInputBarFlag
p280
I0
sVChatRoomId
p281
I0
sVEncryChatRoomId
p282
g52
sVAttrStatus
p283
I2147588133
sVStatues
p284
I0
stp285
Rp286
I1
bag34
(g38
g39
(dp287
VUserName
p288
V@bbde9e7b397d7b5da44ae6d33bb844319e5a1b19b5dce7bdff42da1b09f7fdee
p289
sVCity
p290
V\u676d\u5dde
p291
sVSnsFlag
p292
I17
sVDisplayName
p293
g52
sVUniFriend
p294
I0
sVMemberCount
p295
I0
sVOwnerUin
p296
I0
sVMemberList
p297
g50
sVAlias
p298
g52
sVPYQuanPin
p299
Vatangge
p300
sVSignature
p301
V\u806a\u660e\u6e90\u4e8e\u52e4\u594b \u5929\u624d\u5728\u4e8e\u79ef\u7d2f
p302
sVRemarkPYInitial
p303
g52
sVContactFlag
p304
I3
sVUin
p305
I0
sVNickName
p306
V\u963f\u6c64\u54e5
p307
sVAppAccountFlag
p308
I0
sVVerifyFlag
p309
I0
sVRemarkPYQuanPin
p310
g52
sVHeadImgUrl
p311
V/cgi-bin/mmwebwx-bin/webwxgeticon?seq=667366884&username=@bbde9e7b397d7b5da44ae6d33bb844319e5a1b19b5dce7bdff42da1b09f7fdee&skey=@crypt_6d8a0cff_732e8a34914384461431cb2d0181bbbb
p312
sVKeyWord
p313
g52
sVProvince
p314
V\u6d59\u6c5f
p315
sVPYInitial
p316
VATG
p317
sVRemarkName
p318
g52
sVStarFriend
p319
I0
sVSex
p320
I1
sVIsOwner
p321
I0
sVHideInputBarFlag
p322
I0
sVChatRoomId
p323
I0
sVEncryChatRoomId
p324
g52
sVAttrStatus
p325
I102589
sVStatues
p326
I0
stp327
Rp328
I1
bag34
(g38
g39
(dp329
VUserName
p330
V@821c9aedfbe853d75a4b8c0a29dda7a90695051aaa4a6a86eb9d64f720013588
p331
sVCity
p332
V\u676d\u5dde
p333
sVSnsFlag
p334
I17
sVDisplayName
p335
g52
sVUniFriend
p336
I0
sVMemberCount
p337
I0
sVOwnerUin
p338
I0
sVMemberList
p339
g50
sVAlias
p340
g52
sVPYQuanPin
p341
Vawo?
p342
sVSignature
p343
V\u66fe\u4ee5\u4e3a\u8d70\u4e0d\u51fa\u7684\u65e5\u5b50\uff0c\u73b0\u5728\u90fd\u56de\u4e0d\u53bb\u4e86\u3002
p344
sVRemarkPYInitial
p345
g52
sVContactFlag
p346
I3
sVUin
p347
I0
sVNickName
p348
V\u963f\u5367\U0001f62f
p349
sVAppAccountFlag
p350
I0
sVVerifyFlag
p351
I0
sVRemarkPYQuanPin
p352
g52
sVHeadImgUrl
p353
V/cgi-bin/mmwebwx-bin/webwxgeticon?seq=667362301&username=@821c9aedfbe853d75a4b8c0a29dda7a90695051aaa4a6a86eb9d64f720013588&skey=@crypt_6d8a0cff_732e8a34914384461431cb2d0181bbbb
p354
sVKeyWord
p355
g52
sVProvince
p356
V\u6d59\u6c5f
p357
sVPYInitial
p358
VAW?
p359
sVRemarkName
p360
g52
sVStarFriend
p361
I0
sVSex
p362
I1
sVIsOwner
p363
I0
sVHideInputBarFlag
p364
I0
sVChatRoomId
p365
I0
sVEncryChatRoomId
p366
g52
sVAttrStatus
p367
I102497
sVStatues
p368
I0
stp369
Rp370
I1
batp371
Rp372
I1
bsS'chatroomList'
p373
g34
(g35
g36
(lp374
g34
(citchat.storage.templates
Chatroom
p375
g39
(dp376
VUserName
p377
V@@d5b605c36e8cafca91d76a8c7f220d81d233c621f33eb3d8be7433fd02c23ca8
p378
sVCity
p379
g52
sVDisplayName
p380
g52
sVUniFriend
p381
I0
sS'Self'
p382
g34
(citchat.storage.templates
ChatroomMember
p383
g39
(dp384
VUserName
p385
V@fdd7917ba9016e8fc36e454f84f252e2dad9474dd5b4a36711783aea5b4a390b
p386
sVRemarkPYQuanPin
p387
g52
sVDisplayName
p388
g52
sVKeyWord
p389
g52
sVPYInitial
p390
g52
sVUin
p391
I0
sg47
g50
sVMemberStatus
p392
I0
sVPYQuanPin
p393
g52
sVRemarkPYInitial
p394
g52
sVNickName
p395
Vrobot
p396
sVAttrStatus
p397
I234309
stp398
Rp399
I1
bsVMemberList
p400
g34
(g35
g36
(lp401
g34
(g383
g39
(dp402
VUserName
p403
V@b8ec3c949d652faf5113829614d5a06fa74b6adfb8d1397e1437211411681a1a
p404
sVRemarkPYQuanPin
p405
g52
sVDisplayName
p406
VFondDream-\u8d35
p407
sVKeyWord
p408
g52
sVPYInitial
p409
g52
sVUin
p410
I0
sg47
g50
sVMemberStatus
p411
I0
sVPYQuanPin
p412
g52
sVRemarkPYInitial
p413
g52
sVNickName
p414
VDouble\u0e08\u0e38\u0e4a\u0e1a
p415
sVAttrStatus
p416
I102525
stp417
Rp418
I1
bag34
(g383
g39
(dp419
VUserName
p420
V@aa7b5ee807227a713778b9a884f621c446627f8c03c5db9c3bf085dcbc0a72dd
p421
sVRemarkPYQuanPin
p422
g52
sVDisplayName
p423
V\u6912\u76d0\u86cb\u767d
p424
sVKeyWord
p425
g52
sVPYInitial
p426
g52
sVUin
p427
I0
sg47
g50
sVMemberStatus
p428
I0
sVPYQuanPin
p429
g52
sVRemarkPYInitial
p430
g52
sVNickName
p431
V\u6881\u534a\u5929\u513f
p432
sVAttrStatus
p433
I76901
stp434
Rp435
I1
bag34
(g383
g39
(dp436
VUserName
p437
V@0b1b57f4b18c1ed81524abd4fbf140405c33ea32ecf11fd0ec34c9559ab69e8b
p438
sVRemarkPYQuanPin
p439
g52
sVDisplayName
p440
V\u5927\u540e\u5929\u4f1a\u66f4\u597d
p441
sVKeyWord
p442
g52
sVPYInitial
p443
g52
sVUin
p444
I0
sg47
g50
sVMemberStatus
p445
I0
sVPYQuanPin
p446
g52
sVRemarkPYInitial
p447
g52
sVNickName
p448
V\u952e\u76d8\u4e0a\u7684\u821e\u8005
p449
sVAttrStatus
p450
I16822375
stp451
Rp452
I1
bag34
(g383
g39
(dp453
VUserName
p454
V@1e3929e3cfcda188d61f7d1c48b329aaf24ab4d658ffe82cad6ef2c3df6f2a04
p455
sVRemarkPYQuanPin
p456
g52
sVDisplayName
p457
V\u4fca\u5cf0\u4ed6\u5988
p458
sVKeyWord
p459
g52
sVPYInitial
p460
g52
sVUin
p461
I0
sg47
g50
sVMemberStatus
p462
I0
sVPYQuanPin
p463
g52
sVRemarkPYInitial
p464
g52
sVNickName
p465
V\u6881\u5c71\u597d\u6c49
p466
sVAttrStatus
p467
I102503
stp468
Rp469
I1
bag34
(g383
g39
(dp470
VUserName
p471
V@bc08bb73f5a2f38daa3a6336c91edc3491d4409348f5bab905404089775ce11e
p472
sVRemarkPYQuanPin
p473
g52
sVDisplayName
p474
V\u94b1\u96be\u6323\uff0c\u5c4e\u96be\u5403\u3002
p475
sVKeyWord
p476
g52
sVPYInitial
p477
g52
sVUin
p478
I0
sg47
g50
sVMemberStatus
p479
I0
sVPYQuanPin
p480
g52
sVRemarkPYInitial
p481
g52
sVNickName
p482
V\u5f53\u521d\u5c31\u4e0d\u8be5\u4e0b\u51e1\U0001f483\U0001f3fb
p483
sVAttrStatus
p484
I2147563623
stp485
Rp486
I1
bag34
(g383
g39
(dp487
VUserName
p488
V@7aadfc1a0f10795972c75c59f1870e65e15ec8a4a08130aa6e89ce1225bb4c44
p489
sVRemarkPYQuanPin
p490
g52
sVDisplayName
p491
g52
sVKeyWord
p492
g52
sVPYInitial
p493
g52
sVUin
p494
I0
sg47
g50
sVMemberStatus
p495
I0
sVPYQuanPin
p496
g52
sVRemarkPYInitial
p497
g52
sVNickName
p498
Vweng
p499
sVAttrStatus
p500
I33655231
stp501
Rp502
I1
bag34
(g383
g39
(dp503
VUserName
p504
V@71ad35c23a00efe3a9d7e77201785f58
p505
sVRemarkPYQuanPin
p506
g52
sVDisplayName
p507
g52
sVKeyWord
p508
g52
sVPYInitial
p509
g52
sVUin
p510
I0
sg47
g50
sVMemberStatus
p511
I0
sVPYQuanPin
p512
g52
sVRemarkPYInitial
p513
g52
sVNickName
p514
V\u84b9\u846d
p515
sVAttrStatus
p516
I2147586145
stp517
Rp518
I1
bag34
(g383
g39
(dp519
g385
g386
sg387
g52
sg388
g52
sg389
g52
sg390
g52
sg391
I0
sg47
g50
sg392
I0
sg393
g52
sg394
g52
sg395
g396
sg397
I234309
stp520
Rp521
I1
batp522
Rp523
I1
bsVPYQuanPin
p524
g52
sVRemarkPYInitial
p525
g52
sVSex
p526
I0
sVAppAccountFlag
p527
I0
sVVerifyFlag
p528
I0
sVProvince
p529
g52
sVKeyWord
p530
g52
sVRemarkName
p531
g52
sVPYInitial
p532
g52
sVIsOwner
p533
I0
sVChatRoomId
p534
I0
sVContactType
p535
I0
sVHideInputBarFlag
p536
I0
sVEncryChatRoomId
p537
g52
sVAttrStatus
p538
I0
sVSnsFlag
p539
I0
sVMemberCount
p540
I8
sVOwnerUin
p541
I0
sVAlias
p542
g52
sS'IsAdmin'
p543
NsVSignature
p544
g52
sVContactFlag
p545
I2
sVNickName
p546
V\u4eba\u591a\u4eba\u5c11 \u6c14\u52bf\u4e0d\u5012
p547
sVChatRoomOwner
p548
V@b8ec3c949d652faf5113829614d5a06fa74b6adfb8d1397e1437211411681a1a
p549
sVRemarkPYQuanPin
p550
g52
sVHeadImgUrl
p551
V/cgi-bin/mmwebwx-bin/webwxgetheadimg?seq=0&username=@@d5b605c36e8cafca91d76a8c7f220d81d233c621f33eb3d8be7433fd02c23ca8&skey=@crypt_6d8a0cff_732e8a34914384461431cb2d0181bbbb
p552
sVUin
p553
I0
sVStarFriend
p554
I0
sVStatues
p555
I1
sVHeadImgUpdateFlag
p556
I1
stp557
Rp558
I1
bag34
(g375
g39
(dp559
VUserName
p560
V@@0b47327f5a82b98753150f20e647ba6e316e1631ce683ef0a0485ce24f32cba1
p561
sVCity
p562
g52
sVDisplayName
p563
g52
sVUniFriend
p564
I0
sg382
g34
(g383
g39
(dp565
VUserName
p566
V@fdd7917ba9016e8fc36e454f84f252e2dad9474dd5b4a36711783aea5b4a390b
p567
sVRemarkPYQuanPin
p568
g52
sVDisplayName
p569
g52
sVKeyWord
p570
g52
sVPYInitial
p571
g52
sVUin
p572
I0
sg47
g50
sVMemberStatus
p573
I0
sVPYQuanPin
p574
g52
sVRemarkPYInitial
p575
g52
sVNickName
p576
Vrobot
p577
sVAttrStatus
p578
I234309
stp579
Rp580
I1
bsVMemberList
p581
g34
(g35
g36
(lp582
g34
(g383
g39
(dp583
VUserName
p584
V@eecc4ef780de082e2d8d9d65f98318e3d570d45dd70ea98b80cc147b1c911e31
p585
sVRemarkPYQuanPin
p586
g52
sVDisplayName
p587
g52
sVKeyWord
p588
g52
sVPYInitial
p589
g52
sVUin
p590
I0
sg47
g50
sVMemberStatus
p591
I0
sVPYQuanPin
p592
g52
sVRemarkPYInitial
p593
g52
sVNickName
p594
V\u7f57\u632f\u98de
p595
sVAttrStatus
p596
I233661
stp597
Rp598
I1
bag34
(g383
g39
(dp599
VUserName
p600
V@821c9aedfbe853d75a4b8c0a29dda7a90695051aaa4a6a86eb9d64f720013588
p601
sVRemarkPYQuanPin
p602
g52
sVDisplayName
p603
g52
sVKeyWord
p604
g52
sVPYInitial
p605
g52
sVUin
p606
I0
sg47
g50
sVMemberStatus
p607
I0
sVPYQuanPin
p608
g52
sVRemarkPYInitial
p609
g52
sVNickName
p610
V\u963f\u5367\U0001f62f
p611
sVAttrStatus
p612
I102497
stp613
Rp614
I1
bag34
(g383
g39
(dp615
VUserName
p616
V@23b5405ccf0d34bc0a0c0b178649fdaea195f86c369d065a1f5f902fdb52f1ab
p617
sVRemarkPYQuanPin
p618
g52
sVDisplayName
p619
g52
sVKeyWord
p620
g52
sVPYInitial
p621
g52
sVUin
p622
I0
sg47
g50
sVMemberStatus
p623
I0
sVPYQuanPin
p624
g52
sVRemarkPYInitial
p625
g52
sVNickName
p626
V\u7b80\u5355\u70b9\u597d
p627
sVAttrStatus
p628
I98789
stp629
Rp630
I1
bag34
(g383
g39
(dp631
VUserName
p632
V@7aadfc1a0f10795972c75c59f1870e65e15ec8a4a08130aa6e89ce1225bb4c44
p633
sVRemarkPYQuanPin
p634
g52
sVDisplayName
p635
g52
sVKeyWord
p636
g52
sVPYInitial
p637
g52
sVUin
p638
I0
sg47
g50
sVMemberStatus
p639
I0
sVPYQuanPin
p640
g52
sVRemarkPYInitial
p641
g52
sVNickName
p642
Vweng
p643
sVAttrStatus
p644
I33655231
stp645
Rp646
I1
bag34
(g383
g39
(dp647
g566
g567
sg568
g52
sg569
g52
sg570
g52
sg571
g52
sg572
I0
sg47
g50
sg573
I0
sg574
g52
sg575
g52
sg576
g577
sg578
I234309
stp648
Rp649
I1
batp650
Rp651
I1
bsVPYQuanPin
p652
g52
sVRemarkPYInitial
p653
g52
sVSex
p654
I0
sVAppAccountFlag
p655
I0
sVVerifyFlag
p656
I0
sVProvince
p657
g52
sVKeyWord
p658
g52
sVRemarkName
p659
g52
sVPYInitial
p660
g52
sVIsOwner
p661
I0
sVChatRoomId
p662
I0
sVContactType
p663
I0
sVHideInputBarFlag
p664
I0
sVEncryChatRoomId
p665
g52
sVAttrStatus
p666
I0
sVSnsFlag
p667
I0
sVMemberCount
p668
I5
sVOwnerUin
p669
I0
sVAlias
p670
g52
sg543
NsVSignature
p671
g52
sVContactFlag
p672
I2
sVNickName
p673
V\u7559\u7ea7\u4e00\u73ed
p674
sVChatRoomOwner
p675
V@23b5405ccf0d34bc0a0c0b178649fdaea195f86c369d065a1f5f902fdb52f1ab
p676
sVRemarkPYQuanPin
p677
g52
sVHeadImgUrl
p678
V/cgi-bin/mmwebwx-bin/webwxgetheadimg?seq=0&username=@@0b47327f5a82b98753150f20e647ba6e316e1631ce683ef0a0485ce24f32cba1&skey=@crypt_6d8a0cff_732e8a34914384461431cb2d0181bbbb
p679
sVUin
p680
I0
sVStarFriend
p681
I0
sVStatues
p682
I1
sVHeadImgUpdateFlag
p683
I1
stp684
Rp685
I1
bag34
(g375
g39
(dp686
VUserName
p687
V@@b47ccd7d1f073c0023374fce488c9971ef9ab52a4bc43f7c93e87ed8aeec5397
p688
sVCity
p689
g52
sVDisplayName
p690
g52
sVUniFriend
p691
I0
sg382
g34
(g38
g39
(dp692
g41
g31
sg42
g43
sg44
g43
sg45
I0
sg46
I0
sg47
g50
sg51
g52
sg53
g52
sg54
I456577804
sg55
I0
sg56
I0
sg57
g43
sg58
g43
sg59
g52
sg60
g52
sg61
I0
sg62
I0
sg63
I1
sg64
g43
sg65
I0
sg66
I0
sg67
I0
sg68
I0
sg69
g43
sg70
g52
sg71
I0
sg72
g73
sg74
g52
sg75
g76
sg77
I2
sg78
I0
sg79
I0
stp693
Rp694
I1
bsVMemberList
p695
g34
(g35
g36
(lp696
tp697
Rp698
I1
bsVPYQuanPin
p699
g52
sVRemarkPYInitial
p700
g52
sVSex
p701
I0
sVAppAccountFlag
p702
I0
sVVerifyFlag
p703
I0
sVProvince
p704
g52
sVKeyWord
p705
g52
sVRemarkName
p706
g52
sVPYInitial
p707
g52
sVIsOwner
p708
I0
sVChatRoomId
p709
I0
sVHideInputBarFlag
p710
I0
sVEncryChatRoomId
p711
g52
sVAttrStatus
p712
I0
sVSnsFlag
p713
I0
sVMemberCount
p714
I3
sVOwnerUin
p715
I0
sVAlias
p716
g52
sg543
NsVSignature
p717
g52
sVContactFlag
p718
I0
sVNickName
p719
V\u6280\u672f\u5927\u5496\u7fa4
p720
sVRemarkPYQuanPin
p721
g52
sVHeadImgUrl
p722
V/cgi-bin/mmwebwx-bin/webwxgetheadimg?seq=0&username=@@b47ccd7d1f073c0023374fce488c9971ef9ab52a4bc43f7c93e87ed8aeec5397&skey=@crypt_6d8a0cff_732e8a34914384461431cb2d0181bbbb
p723
sVUin
p724
I0
sVStarFriend
p725
I0
sVStatues
p726
I1
stp727
Rp728
I1
bag34
(g375
g39
(dp729
VUserName
p730
V@@892a11809c74b9a873f45cda2b08ba45574437a4a037cb7b17ada67dca369fba
p731
sVCity
p732
g52
sVDisplayName
p733
g52
sVUniFriend
p734
I0
sg382
g34
(g38
g39
(dp735
g41
g31
sg42
g43
sg44
g43
sg45
I0
sg46
I0
sg47
g50
sg51
g52
sg53
g52
sg54
I456577804
sg55
I0
sg56
I0
sg57
g43
sg58
g43
sg59
g52
sg60
g52
sg61
I0
sg62
I0
sg63
I1
sg64
g43
sg65
I0
sg66
I0
sg67
I0
sg68
I0
sg69
g43
sg70
g52
sg71
I0
sg72
g73
sg74
g52
sg75
g76
sg77
I2
sg78
I0
sg79
I0
stp736
Rp737
I1
bsVMemberList
p738
g34
(g35
g36
(lp739
tp740
Rp741
I1
bsVPYQuanPin
p742
g52
sVRemarkPYInitial
p743
g52
sVSex
p744
I0
sVAppAccountFlag
p745
I0
sVVerifyFlag
p746
I0
sVProvince
p747
g52
sVKeyWord
p748
g52
sVRemarkName
p749
g52
sVPYInitial
p750
g52
sVIsOwner
p751
I0
sVChatRoomId
p752
I0
sVHideInputBarFlag
p753
I0
sVEncryChatRoomId
p754
g52
sVAttrStatus
p755
I0
sVSnsFlag
p756
I0
sVMemberCount
p757
I17
sVOwnerUin
p758
I0
sVAlias
p759
g52
sg543
NsVSignature
p760
g52
sVContactFlag
p761
I0
sVNickName
p762
V\u6c99\u96d5\u7f51\u53cb\u7fa4
p763
sVRemarkPYQuanPin
p764
g52
sVHeadImgUrl
p765
V/cgi-bin/mmwebwx-bin/webwxgetheadimg?seq=0&username=@@892a11809c74b9a873f45cda2b08ba45574437a4a037cb7b17ada67dca369fba&skey=@crypt_6d8a0cff_732e8a34914384461431cb2d0181bbbb
p766
sVUin
p767
I0
sVStarFriend
p768
I0
sVStatues
p769
I1
stp770
Rp771
I1
batp772
Rp773
I1
bsS'nickName'
p774
g73
sS'mpList'
p775
g34
(g35
g36
(lp776
g34
(citchat.storage.templates
MassivePlatform
p777
g39
(dp778
VUserName
p779
V@8da59df5053bcfab88fa1cabb14f9598
p780
sVCity
p781
V\u5e7f\u5dde
p782
sVSnsFlag
p783
I0
sVDisplayName
p784
g52
sVUniFriend
p785
I0
sVMemberCount
p786
I0
sVOwnerUin
p787
I0
sVMemberList
p788
g50
sVAlias
p789
g52
sVPYQuanPin
p790
Vweixinyundong
p791
sVSignature
p792
V\u4e5f\u8bb8\u4f60\u65e9\u5df2\u4e60\u60ef\u4e00\u4e2a\u4eba\u8fd0\u52a8\u7684\u5b64\u72ec\uff0c\u5374\u4e5f\u5076\u5c14\u6e34\u671b\u5f97\u5230\u8d5e\u8d4f\u3002\u52a0\u5165\u5fae\u4fe1\u8fd0\u52a8\uff0c\u548c\u670b\u53cb\u4e00\u8d77\u70b9\u8d5e\u4e92\u52a8\u3001\u62a2\u5360\u5c01\u9762\uff0c\u5206\u4eab\u8fd0\u52a8\u7684\u5feb\u4e50\u3002
p793
sVRemarkPYInitial
p794
g52
sVContactFlag
p795
I3
sVUin
p796
I0
sVNickName
p797
V\u5fae\u4fe1\u8fd0\u52a8
p798
sVAppAccountFlag
p799
I0
sVVerifyFlag
p800
I24
sVRemarkPYQuanPin
p801
g52
sVHeadImgUrl
p802
V/cgi-bin/mmwebwx-bin/webwxgeticon?seq=652523116&username=@8da59df5053bcfab88fa1cabb14f9598&skey=@crypt_6d8a0cff_732e8a34914384461431cb2d0181bbbb
p803
sVKeyWord
p804
Vgh_
p805
sVProvince
p806
V\u5e7f\u4e1c
p807
sVPYInitial
p808
VWXYD
p809
sVRemarkName
p810
g52
sVStarFriend
p811
I0
sVSex
p812
I0
sVIsOwner
p813
I0
sVHideInputBarFlag
p814
I0
sVChatRoomId
p815
I0
sVEncryChatRoomId
p816
g52
sVAttrStatus
p817
I0
sVStatues
p818
I0
stp819
Rp820
I1
bag34
(g777
g39
(dp821
VUserName
p822
V@7b4925e47e3d4d3182aae2ff77979719
p823
sVCity
p824
V\u9042\u5b81
p825
sVSnsFlag
p826
I0
sVDisplayName
p827
g52
sVUniFriend
p828
I0
sVMemberCount
p829
I0
sVOwnerUin
p830
I0
sVMemberList
p831
g50
sVAlias
p832
g52
sVPYQuanPin
p833
VCKmadengdoumimiaowumingxiulianhongsuyanzhibo
p834
sVSignature
p835
V\u3010\u957f\u671f\u514d\u8d39\u5206\u4eab\u5404\u5927\u76f4\u64ad\u5e73\u53f0\u6700\u65b0\u4e0b\u8f7d\u5730\u5740\uff0c\u5173\u6ce8\u4e00\u4e0b\u5730\u5740\u5230\u624b\u3011
p836
sVRemarkPYInitial
p837
g52
sVContactFlag
p838
I3
sVUin
p839
I0
sVNickName
p840
VCK\u6469\u767b\u6296\u54aa\u55b5\u6c61\u540d\u79c0\u8138\u7ea2\u7d20\u989c\u76f4\u64ad
p841
sVAppAccountFlag
p842
I0
sVVerifyFlag
p843
I8
sVRemarkPYQuanPin
p844
g52
sVHeadImgUrl
p845
V/cgi-bin/mmwebwx-bin/webwxgeticon?seq=667361146&username=@7b4925e47e3d4d3182aae2ff77979719&skey=@crypt_6d8a0cff_732e8a34914384461431cb2d0181bbbb
p846
sVKeyWord
p847
Vgh_
p848
sVProvince
p849
V\u56db\u5ddd
p850
sVPYInitial
p851
VCKMDDMMWMXLHSYZB
p852
sVRemarkName
p853
g52
sVStarFriend
p854
I0
sVSex
p855
I0
sVIsOwner
p856
I0
sVHideInputBarFlag
p857
I0
sVChatRoomId
p858
I0
sVEncryChatRoomId
p859
g52
sVAttrStatus
p860
I0
sVStatues
p861
I0
stp862
Rp863
I1
bag34
(g777
g39
(dp864
VUserName
p865
V@b6d639587f6052e44bf4c427a1d6adb2
p866
sVCity
p867
V\u5e7f\u5dde
p868
sVSnsFlag
p869
I0
sVDisplayName
p870
g52
sVUniFriend
p871
I0
sVMemberCount
p872
I0
sVOwnerUin
p873
I0
sVMemberList
p874
g50
sVAlias
p875
g52
sVPYQuanPin
p876
Vweixinyouhu
p877
sVSignature
p878
V\u5173\u6ce8\u5fae\u4fe1\u6e38\u620f\u5b98\u65b9\u516c\u4f17\u5e10\u53f7\uff0c\u5373\u65f6\u6536\u53d6\u6e38\u620f\u8baf\u606f\uff0c\u8fd8\u80fd\u67e5\u770b\u5404\u6e38\u620f\u653b\u7565\uff0c\u62a2\u5148\u4f53\u9a8c\u6d3b\u52a8\uff01
p879
sVRemarkPYInitial
p880
g52
sVContactFlag
p881
I3
sVUin
p882
I0
sVNickName
p883
V\u5fae\u4fe1\u6e38\u620f
p884
sVAppAccountFlag
p885
I0
sVVerifyFlag
p886
I24
sVRemarkPYQuanPin
p887
g52
sVHeadImgUrl
p888
V/cgi-bin/mmwebwx-bin/webwxgeticon?seq=667361772&username=@b6d639587f6052e44bf4c427a1d6adb2&skey=@crypt_6d8a0cff_732e8a34914384461431cb2d0181bbbb
p889
sVKeyWord
p890
Vgh_
p891
sVProvince
p892
V\u5e7f\u4e1c
p893
sVPYInitial
p894
VWXYH
p895
sVRemarkName
p896
g52
sVStarFriend
p897
I0
sVSex
p898
I0
sVIsOwner
p899
I0
sVHideInputBarFlag
p900
I0
sVChatRoomId
p901
I0
sVEncryChatRoomId
p902
g52
sVAttrStatus
p903
I0
sVStatues
p904
I0
stp905
Rp906
I1
bag34
(g777
g39
(dp907
VUserName
p908
V@22318ed41b9a7ad8fb37ee3060a9fd8d
p909
sVCity
p910
V\u4fe1\u9633
p911
sVSnsFlag
p912
I0
sVDisplayName
p913
g52
sVUniFriend
p914
I0
sVMemberCount
p915
I0
sVOwnerUin
p916
I0
sVMemberList
p917
g50
sVAlias
p918
g52
sVPYQuanPin
p919
Vlibingjiaoyu
p920
sVSignature
p921
V\u670d\u52a1\u548c\u5ba3\u4f20\u516c\u53f8\u4e1a\u52a1\u7684\u76f8\u5173\u4fe1\u606f\uff0c\u4e0d\u5b9a\u65f6\u53d1\u5e03\u4f20\u7edf\u6559\u80b2\u7f8e\u6587
p922
sVRemarkPYInitial
p923
g52
sVContactFlag
p924
I1
sVUin
p925
I0
sVNickName
p926
V\u5389\u5175\u6559\u80b2
p927
sVAppAccountFlag
p928
I0
sVVerifyFlag
p929
I24
sVRemarkPYQuanPin
p930
g52
sVHeadImgUrl
p931
V/cgi-bin/mmwebwx-bin/webwxgeticon?seq=667366688&username=@22318ed41b9a7ad8fb37ee3060a9fd8d&skey=@crypt_6d8a0cff_732e8a34914384461431cb2d0181bbbb
p932
sVKeyWord
p933
Vgh_
p934
sVProvince
p935
V\u6cb3\u5357
p936
sVPYInitial
p937
VLBJY
p938
sVRemarkName
p939
g52
sVStarFriend
p940
I0
sVSex
p941
I0
sVIsOwner
p942
I0
sVHideInputBarFlag
p943
I0
sVChatRoomId
p944
I0
sVEncryChatRoomId
p945
g52
sVAttrStatus
p946
I0
sVStatues
p947
I0
stp948
Rp949
I1
batp950
Rp951
I1
bssS'loginInfo'
p952
(dp953
S'SyncKey'
p954
(dp955
VCount
p956
I8
sVList
p957
(lp958
(dp959
VVal
p960
I686664188
sVKey
p961
I1
sa(dp962
VVal
p963
I686664638
sVKey
p964
I2
sa(dp965
VVal
p966
I686664050
sVKey
p967
I3
sa(dp968
VVal
p969
I686664236
sVKey
p970
I11
sa(dp971
VVal
p972
I1558335459
sVKey
p973
I201
sa(dp974
VVal
p975
I1558323905
sVKey
p976
I203
sa(dp977
VVal
p978
I1558328642
sVKey
p979
I1000
sa(dp980
VVal
p981
I1558328714
sVKey
p982
I1001
sassS'syncUrl'
p983
S'https://webpush.wx2.qq.com/cgi-bin/mmwebwx-bin'
p984
sS'skey'
p985
V@crypt_6d8a0cff_732e8a34914384461431cb2d0181bbbb
p986
sS'wxuin'
p987
V456577804
p988
sS'synckey'
p989
S'1_686664188|2_686664638|3_686664050|11_686664236|201_1558335459|203_1558323905|1000_1558328642|1001_1558328714'
p990
sS'url'
p991
Vhttps://wx2.qq.com/cgi-bin/mmwebwx-bin
p992
sS'pass_ticket'
p993
VyZ9u2AVKLeiMDYMjjdqOTYlhTzgL0PEfr%2FBOb4HJdWE%2FvdGljswqpNOY%2FArMFfw1
p994
sS'wxsid'
p995
Vak5O/4Ytr4y8j67Q
p996
sS'InviteStartCount'
p997
I40
sS'deviceid'
p998
S'e539236314622709'
p999
sS'fileUrl'
p1000
S'https://file.wx2.qq.com/cgi-bin/mmwebwx-bin'
p1001
sS'BaseRequest'
p1002
(dp1003
g54
g988
sS'Skey'
p1004
g986
sS'DeviceID'
p1005
g994
sS'Sid'
p1006
g996
ssS'User'
p1007
g34
(g38
g39
(dp1008
g41
g31
sg42
g43
sg44
g43
sg45
I0
sg47
g50
sg51
g52
sg53
g52
sg77
I2
sg55
I0
sg56
I0
sg57
g43
sg58
g43
sg59
g52
sg60
g52
sg61
I0
sg62
I0
sg63
I1
sg64
g43
sg65
I0
sg68
I0
sg66
I0
sg67
I0
sg46
I0
sg69
g43
sg70
g52
sg71
I0
sg72
g73
sg74
g52
sg75
g76
sg54
I456577804
sg78
I0
sg79
I0
stp1009
Rp1010
I1
bss.