(dp0
S'cookies'
p1
(dp2
S'webwx_data_ticket'
p3
S'gScoL8+oVAoKG1Q9zfYhkzJB'
p4
sS'wxuin'
p5
S'456577804'
p6
sS'webwxuvid'
p7
S'05f901c0b296449fc666c3e50886523797bc4ec3c2586f63cd80067ffc2fd9841e202d99e2a5eceb2238a48e950e233e'
p8
sS'webwx_auth_ticket'
p9
S'CIsBEJqjrMwCGoABX1GUSk9yrsmZtXEWrAjwRYAXvm8Fz3JY77EwTOcq/JSwYtcbNByDiW5f3qSZL24Im4HuB4ungeoGP2DB2fnst6WeISncAbloCQfsCi8b2rYLjO8yiU5EpOkeLYXEeOAFph8Q7mhAJx3ggZSjAMqM85nltX/RmvIUx3FqmOBeNkk='
p10
sS'wxloadtime'
p11
S'1558068183_expired'
p12
sS'wxpluginkey'
p13
S'1558075548'
p14
sS'wxsid'
p15
S'q/sdqTJNg/7q2olr'
p16
sS'mm_lang'
p17
S'zh_CN'
p18
ssS'version'
p19
S'1.3.8'
p20
sS'storage'
p21
(dp22
S'userName'
p23
V@d7789d70cbe70558812ab5a7452102ed7a85dd600e3644cf2429965c99095578
p24
sS'lastInputUserName'
p25
NsS'memberList'
p26
ccopy_reg
_reconstructor
p27
(citchat.storage.templates
ContactList
p28
c__builtin__
list
p29
(lp30
g27
(citchat.storage.templates
User
p31
c__builtin__
dict
p32
(dp33
S'UserName'
p34
g24
sS'City'
p35
S''
p36
sS'DisplayName'
p37
g36
sS'UniFriend'
p38
I0
sS'OwnerUin'
p39
I0
sS'MemberList'
p40
g27
(g28
g29
(lp41
tp42
Rp43
I1
bsS'PYQuanPin'
p44
V
p45
sS'RemarkPYInitial'
p46
g45
sS'Uin'
p47
I456577804
sS'AppAccountFlag'
p48
I0
sS'VerifyFlag'
p49
I0
sS'Province'
p50
g36
sS'KeyWord'
p51
g36
sS'RemarkName'
p52
g45
sS'PYInitial'
p53
g45
sS'ChatRoomId'
p54
I0
sS'HideInputBarFlag'
p55
I0
sVHeadImgFlag
p56
I1
sS'EncryChatRoomId'
p57
g36
sS'AttrStatus'
p58
I0
sS'SnsFlag'
p59
I0
sS'MemberCount'
p60
I0
sVWebWxPluginSwitch
p61
I0
sS'Alias'
p62
g36
sS'Signature'
p63
g45
sS'ContactFlag'
p64
I0
sS'NickName'
p65
Vrobot
p66
sS'RemarkPYQuanPin'
p67
g45
sS'HeadImgUrl'
p68
V/cgi-bin/mmwebwx-bin/webwxgeticon?seq=304996370&username=@d7789d70cbe70558812ab5a7452102ed7a85dd600e3644cf2429965c99095578&skey=@crypt_6d8a0cff_cfdb4b1967d711b5d291a77822bd7d79
p69
sS'Sex'
p70
I1
sS'StarFriend'
p71
I0
sS'Statues'
p72
I0
stp73
Rp74
I1
bag27
(g31
g32
(dp75
VUserName
p76
V@23ae426a40b74cbbb2fb1ed5bcda7a79edb8e9bc8554dda1611e8623dd85219b
p77
sVCity
p78
g45
sVSnsFlag
p79
I17
sVDisplayName
p80
g45
sVUniFriend
p81
I0
sVMemberCount
p82
I0
sVOwnerUin
p83
I0
sVMemberList
p84
g43
sVAlias
p85
g45
sVPYQuanPin
p86
Vweng
p87
sVSignature
p88
g45
sVRemarkPYInitial
p89
g45
sVContactFlag
p90
I3
sVUin
p91
I0
sVNickName
p92
Vweng
p93
sVAppAccountFlag
p94
I0
sVVerifyFlag
p95
I0
sVRemarkPYQuanPin
p96
g45
sVHeadImgUrl
p97
V/cgi-bin/mmwebwx-bin/webwxgeticon?seq=642661211&username=@23ae426a40b74cbbb2fb1ed5bcda7a79edb8e9bc8554dda1611e8623dd85219b&skey=@crypt_6d8a0cff_cfdb4b1967d711b5d291a77822bd7d79
p98
sVKeyWord
p99
g45
sVProvince
p100
g45
sVPYInitial
p101
VWENG
p102
sVRemarkName
p103
g45
sVStarFriend
p104
I0
sVSex
p105
I1
sVIsOwner
p106
I0
sVHideInputBarFlag
p107
I0
sVChatRoomId
p108
I0
sVEncryChatRoomId
p109
g45
sVAttrStatus
p110
I33655231
sVStatues
p111
I0
stp112
Rp113
I1
bag27
(g31
g32
(dp114
VUserName
p115
V@486beff6efbc1d32c3348e5a89bc516ac9beb382db464d44cdf6449a9946300c
p116
sVCity
p117
g45
sVSnsFlag
p118
I16
sVDisplayName
p119
g45
sVUniFriend
p120
I0
sVMemberCount
p121
I0
sVOwnerUin
p122
I0
sVMemberList
p123
g43
sVAlias
p124
g45
sVPYQuanPin
p125
Vxiaokeyaoyao
p126
sVSignature
p127
g45
sVRemarkPYInitial
p128
g45
sVContactFlag
p129
I3
sVUin
p130
I0
sVNickName
p131
V\u5c0f\u53efyaoyao
p132
sVAppAccountFlag
p133
I0
sVVerifyFlag
p134
I0
sVRemarkPYQuanPin
p135
g45
sVHeadImgUrl
p136
V/cgi-bin/mmwebwx-bin/webwxgeticon?seq=667362617&username=@486beff6efbc1d32c3348e5a89bc516ac9beb382db464d44cdf6449a9946300c&skey=@crypt_6d8a0cff_cfdb4b1967d711b5d291a77822bd7d79
p137
sVKeyWord
p138
g45
sVProvince
p139
g45
sVPYInitial
p140
VXKYAOYAO
p141
sVRemarkName
p142
g45
sVStarFriend
p143
I0
sVSex
p144
I0
sVIsOwner
p145
I0
sVHideInputBarFlag
p146
I0
sVChatRoomId
p147
I0
sVEncryChatRoomId
p148
g45
sVAttrStatus
p149
I33686845
sVStatues
p150
I0
stp151
Rp152
I1
bag27
(g31
g32
(dp153
VUserName
p154
V@2269c69f7e1c2abb80e8f8e7129e77275a5a4b04a3ed6ad112052f471cf7dbc0
p155
sVCity
p156
V\u676d\u5dde
p157
sVSnsFlag
p158
I17
sVDisplayName
p159
g45
sVUniFriend
p160
I0
sVMemberCount
p161
I0
sVOwnerUin
p162
I0
sVMemberList
p163
g43
sVAlias
p164
g45
sVPYQuanPin
p165
Vawo?
p166
sVSignature
p167
V\u66fe\u4ee5\u4e3a\u8d70\u4e0d\u51fa\u7684\u65e5\u5b50\uff0c\u73b0\u5728\u90fd\u56de\u4e0d\u53bb\u4e86\u3002
p168
sVRemarkPYInitial
p169
g45
sVContactFlag
p170
I3
sVUin
p171
I0
sVNickName
p172
V\u963f\u5367\U0001f62f
p173
sVAppAccountFlag
p174
I0
sVVerifyFlag
p175
I0
sVRemarkPYQuanPin
p176
g45
sVHeadImgUrl
p177
V/cgi-bin/mmwebwx-bin/webwxgeticon?seq=667362301&username=@2269c69f7e1c2abb80e8f8e7129e77275a5a4b04a3ed6ad112052f471cf7dbc0&skey=@crypt_6d8a0cff_cfdb4b1967d711b5d291a77822bd7d79
p178
sVKeyWord
p179
g45
sVProvince
p180
V\u6d59\u6c5f
p181
sVPYInitial
p182
VAW?
p183
sVRemarkName
p184
g45
sVStarFriend
p185
I0
sVSex
p186
I1
sVIsOwner
p187
I0
sVHideInputBarFlag
p188
I0
sVChatRoomId
p189
I0
sVEncryChatRoomId
p190
g45
sVAttrStatus
p191
I102497
sVStatues
p192
I0
stp193
Rp194
I1
bag27
(g31
g32
(dp195
VUserName
p196
V@1a03c54fc9e0d7237d8170b7b06246e297e55e9f25943d9d6c4452319f8710cb
p197
sVCity
p198
V\u4fe1\u9633
p199
sVSnsFlag
p200
I1
sVDisplayName
p201
g45
sVUniFriend
p202
I0
sVMemberCount
p203
I0
sVOwnerUin
p204
I0
sVMemberList
p205
g43
sVAlias
p206
g45
sVPYQuanPin
p207
Vfengleilei13323970521
p208
sVSignature
p209
V\u5fc3\u6709\u731b\u864e\uff0c\u7ec6\u55c5\u8537\u8587
p210
sVRemarkPYInitial
p211
g45
sVContactFlag
p212
I3
sVUin
p213
I0
sVNickName
p214
V\u4e30\u78ca\u78ca-13323970521
p215
sVAppAccountFlag
p216
I0
sVVerifyFlag
p217
I0
sVRemarkPYQuanPin
p218
g45
sVHeadImgUrl
p219
V/cgi-bin/mmwebwx-bin/webwxgeticon?seq=660081808&username=@1a03c54fc9e0d7237d8170b7b06246e297e55e9f25943d9d6c4452319f8710cb&skey=@crypt_6d8a0cff_cfdb4b1967d711b5d291a77822bd7d79
p220
sVKeyWord
p221
g45
sVProvince
p222
V\u6cb3\u5357
p223
sVPYInitial
p224
VFLL13323970521
p225
sVRemarkName
p226
g45
sVStarFriend
p227
I0
sVSex
p228
I1
sVIsOwner
p229
I0
sVHideInputBarFlag
p230
I0
sVChatRoomId
p231
I0
sVEncryChatRoomId
p232
g45
sVAttrStatus
p233
I2147588133
sVStatues
p234
I0
stp235
Rp236
I1
bag27
(g31
g32
(dp237
VUserName
p238
V@1f2ed541ebeec81c849c065475ed74728069bf10afededdbec9c20b5bdf38a37
p239
sVCity
p240
V\u676d\u5dde
p241
sVSnsFlag
p242
I17
sVDisplayName
p243
g45
sVUniFriend
p244
I0
sVMemberCount
p245
I0
sVOwnerUin
p246
I0
sVMemberList
p247
g43
sVAlias
p248
g45
sVPYQuanPin
p249
Vatangge
p250
sVSignature
p251
V\u806a\u660e\u6e90\u4e8e\u52e4\u594b \u5929\u624d\u5728\u4e8e\u79ef\u7d2f
p252
sVRemarkPYInitial
p253
g45
sVContactFlag
p254
I3
sVUin
p255
I0
sVNickName
p256
V\u963f\u6c64\u54e5
p257
sVAppAccountFlag
p258
I0
sVVerifyFlag
p259
I0
sVRemarkPYQuanPin
p260
g45
sVHeadImgUrl
p261
V/cgi-bin/mmwebwx-bin/webwxgeticon?seq=667366884&username=@1f2ed541ebeec81c849c065475ed74728069bf10afededdbec9c20b5bdf38a37&skey=@crypt_6d8a0cff_cfdb4b1967d711b5d291a77822bd7d79
p262
sVKeyWord
p263
g45
sVProvince
p264
V\u6d59\u6c5f
p265
sVPYInitial
p266
VATG
p267
sVRemarkName
p268
g45
sVStarFriend
p269
I0
sVSex
p270
I1
sVIsOwner
p271
I0
sVHideInputBarFlag
p272
I0
sVChatRoomId
p273
I0
sVEncryChatRoomId
p274
g45
sVAttrStatus
p275
I102589
sVStatues
p276
I0
stp277
Rp278
I1
bag27
(g31
g32
(dp279
VUserName
p280
V@83f5695ae1ab27df10a44b173adf910ef92e2f260f7926ce5500e2f8823e4cb7
p281
sVCity
p282
V\u676d\u5dde
p283
sVSnsFlag
p284
I17
sVDisplayName
p285
g45
sVUniFriend
p286
I0
sVMemberCount
p287
I0
sVOwnerUin
p288
I0
sVMemberList
p289
g43
sVAlias
p290
g45
sVPYQuanPin
p291
VDouble????
p292
sVSignature
p293
V\u9047\u826f\u4eba\u4e88\u541b\u6b22\u559c\u57ce\u000a\u6696\u8272\u6d6e\u4f59\u751f
p294
sVRemarkPYInitial
p295
g45
sVContactFlag
p296
I3
sVUin
p297
I0
sVNickName
p298
VDouble\u0e08\u0e38\u0e4a\u0e1a
p299
sVAppAccountFlag
p300
I0
sVVerifyFlag
p301
I0
sVRemarkPYQuanPin
p302
g45
sVHeadImgUrl
p303
V/cgi-bin/mmwebwx-bin/webwxgeticon?seq=667363772&username=@83f5695ae1ab27df10a44b173adf910ef92e2f260f7926ce5500e2f8823e4cb7&skey=@crypt_6d8a0cff_cfdb4b1967d711b5d291a77822bd7d79
p304
sVKeyWord
p305
g45
sVProvince
p306
V\u6d59\u6c5f
p307
sVPYInitial
p308
VDOUBLE????
p309
sVRemarkName
p310
g45
sVStarFriend
p311
I0
sVSex
p312
I1
sVIsOwner
p313
I0
sVHideInputBarFlag
p314
I0
sVChatRoomId
p315
I0
sVEncryChatRoomId
p316
g45
sVAttrStatus
p317
I102525
sVStatues
p318
I0
stp319
Rp320
I1
batp321
Rp322
I1
bsS'chatroomList'
p323
g27
(g28
g29
(lp324
g27
(citchat.storage.templates
Chatroom
p325
g32
(dp326
VUserName
p327
V@@e068f6acf118fe4b9aaafb68f7bdd9d20fb904f90935ecef9bc3c713d8284201
p328
sVCity
p329
g45
sVSnsFlag
p330
I0
sVMemberCount
p331
I3
sS'Self'
p332
g27
(citchat.storage.templates
ChatroomMember
p333
g32
(dp334
VUserName
p335
V@d7789d70cbe70558812ab5a7452102ed7a85dd600e3644cf2429965c99095578
p336
sVRemarkPYQuanPin
p337
g45
sVDisplayName
p338
g45
sVKeyWord
p339
g45
sVPYInitial
p340
g45
sVUin
p341
I0
sS'MemberList'
p342
g43
sVRemarkPYInitial
p343
g45
sVPYQuanPin
p344
g45
sVMemberStatus
p345
I0
sVNickName
p346
Vrobot
p347
sVAttrStatus
p348
I234309
stp349
Rp350
I1
bsS'OwnerUin'
p351
I0
sVMemberList
p352
g27
(g28
g29
(lp353
g27
(g333
g32
(dp354
VUserName
p355
V@b9ddfd13f97ac27ac4cd96239bd5efbb92b37e7b27b55261041f888f255daa9c
p356
sVRemarkPYQuanPin
p357
g45
sVDisplayName
p358
g45
sVKeyWord
p359
g45
sVPYInitial
p360
g45
sVUin
p361
I0
sg342
g43
sVMemberStatus
p362
I0
sVPYQuanPin
p363
g45
sVRemarkPYInitial
p364
g45
sVNickName
p365
V\u75af\u5b50
p366
sVAttrStatus
p367
I235965
stp368
Rp369
I1
bag27
(g333
g32
(dp370
VUserName
p371
V@23ae426a40b74cbbb2fb1ed5bcda7a79edb8e9bc8554dda1611e8623dd85219b
p372
sVRemarkPYQuanPin
p373
g45
sVDisplayName
p374
g45
sVKeyWord
p375
g45
sVPYInitial
p376
g45
sVUin
p377
I0
sg342
g43
sVMemberStatus
p378
I0
sVPYQuanPin
p379
g45
sVRemarkPYInitial
p380
g45
sVNickName
p381
Vweng
p382
sVAttrStatus
p383
I33655231
stp384
Rp385
I1
bag27
(g333
g32
(dp386
g335
g336
sg337
g45
sg338
g45
sg339
g45
sg340
g45
sg341
I0
sg342
g43
sg345
I0
sg344
g45
sg343
g45
sg346
g347
sg348
I234309
stp387
Rp388
I1
batp389
Rp390
I1
bsVAlias
p391
g45
sS'IsAdmin'
p392
NsVSignature
p393
g45
sVContactFlag
p394
I2
sVNickName
p395
V\u6280\u672f\u5927\u5496\u7fa4
p396
sVChatRoomOwner
p397
V@23ae426a40b74cbbb2fb1ed5bcda7a79edb8e9bc8554dda1611e8623dd85219b
p398
sVVerifyFlag
p399
I0
sVProvince
p400
g45
sVStatues
p401
I1
sVKeyWord
p402
g45
sVRemarkName
p403
g45
sVHeadImgUrl
p404
V/cgi-bin/mmwebwx-bin/webwxgetheadimg?seq=0&username=@@e068f6acf118fe4b9aaafb68f7bdd9d20fb904f90935ecef9bc3c713d8284201&skey=@crypt_6d8a0cff_cfdb4b1967d711b5d291a77822bd7d79
p405
sVSex
p406
I0
sVContactType
p407
I0
sVHideInputBarFlag
p408
I0
sVAttrStatus
p409
I0
sVHeadImgUpdateFlag
p410
I1
stp411
Rp412
I1
bag27
(g325
g32
(dp413
VUserName
p414
V@@471826620dc0dac77b3b725958cf5e1c6f548bf020fa1dd694e79ae679f4e1ca
p415
sVCity
p416
g45
sVDisplayName
p417
g45
sVUniFriend
p418
I0
sS'Self'
p419
g27
(g333
g32
(dp420
VUserName
p421
V@d7789d70cbe70558812ab5a7452102ed7a85dd600e3644cf2429965c99095578
p422
sVRemarkPYQuanPin
p423
g45
sVDisplayName
p424
g45
sVKeyWord
p425
g45
sVPYInitial
p426
g45
sVUin
p427
I0
sS'MemberList'
p428
g43
sVMemberStatus
p429
I0
sVPYQuanPin
p430
g45
sVRemarkPYInitial
p431
g45
sVNickName
p432
Vrobot
p433
sVAttrStatus
p434
I234309
stp435
Rp436
I1
bsVMemberList
p437
g27
(g28
g29
(lp438
g27
(g333
g32
(dp439
VUserName
p440
V@2269c69f7e1c2abb80e8f8e7129e77275a5a4b04a3ed6ad112052f471cf7dbc0
p441
sVRemarkPYQuanPin
p442
g45
sVDisplayName
p443
g45
sVKeyWord
p444
g45
sVPYInitial
p445
g45
sVUin
p446
I0
sg428
g43
sVMemberStatus
p447
I0
sVPYQuanPin
p448
g45
sVRemarkPYInitial
p449
g45
sVNickName
p450
V\u963f\u5367\U0001f62f
p451
sVAttrStatus
p452
I102497
stp453
Rp454
I1
bag27
(g333
g32
(dp455
VUserName
p456
V@18f711ea76e4a73b909a6c3a1dd1c75e2d9e77da383fb62495c444e19209f88f
p457
sVRemarkPYQuanPin
p458
g45
sVDisplayName
p459
g45
sVKeyWord
p460
g45
sVPYInitial
p461
g45
sVUin
p462
I0
sg428
g43
sVMemberStatus
p463
I0
sVPYQuanPin
p464
g45
sVRemarkPYInitial
p465
g45
sVNickName
p466
V\u5927\u9b54\u738b
p467
sVAttrStatus
p468
I72125
stp469
Rp470
I1
bag27
(g333
g32
(dp471
VUserName
p472
V@22bd049543384634f62cb8bb768f3ae80487da44a7016d4b6b485b81ffc9f2eb
p473
sVRemarkPYQuanPin
p474
g45
sVDisplayName
p475
V\u5c31\u6211\u7f8e\uff0c\u4f60\u4eec\u90fd\u662f\u5927\u50bb\u903c\uff01
p476
sVKeyWord
p477
g45
sVPYInitial
p478
g45
sVUin
p479
I0
sg428
g43
sVMemberStatus
p480
I0
sVPYQuanPin
p481
g45
sVRemarkPYInitial
p482
g45
sVNickName
p483
VXY.m
p484
sVAttrStatus
p485
I104381
stp486
Rp487
I1
bag27
(g333
g32
(dp488
VUserName
p489
V@f363d5120dc85d0ed4311ba90392a5962b950d071ee89e78bb43f804fae2e850
p490
sVRemarkPYQuanPin
p491
g45
sVDisplayName
p492
g45
sVKeyWord
p493
g45
sVPYInitial
p494
g45
sVUin
p495
I0
sg428
g43
sVMemberStatus
p496
I0
sVPYQuanPin
p497
g45
sVRemarkPYInitial
p498
g45
sVNickName
p499
V\u5343\u53f6
p500
sVAttrStatus
p501
I104485
stp502
Rp503
I1
bag27
(g333
g32
(dp504
VUserName
p505
V@95ad5b5931ff6cc789bb8c3be2d8b1d2
p506
sVRemarkPYQuanPin
p507
g45
sVDisplayName
p508
g45
sVKeyWord
p509
Vyy1
p510
sVPYInitial
p511
g45
sVUin
p512
I0
sg428
g43
sVMemberStatus
p513
I0
sVPYQuanPin
p514
g45
sVRemarkPYInitial
p515
g45
sVNickName
p516
VXY.h
p517
sVAttrStatus
p518
I102439
stp519
Rp520
I1
bag27
(g333
g32
(dp521
VUserName
p522
V@1f2ed541ebeec81c849c065475ed74728069bf10afededdbec9c20b5bdf38a37
p523
sVRemarkPYQuanPin
p524
g45
sVDisplayName
p525
g45
sVKeyWord
p526
g45
sVPYInitial
p527
g45
sVUin
p528
I0
sg428
g43
sVMemberStatus
p529
I0
sVPYQuanPin
p530
g45
sVRemarkPYInitial
p531
g45
sVNickName
p532
V\u963f\u6c64\u54e5
p533
sVAttrStatus
p534
I102589
stp535
Rp536
I1
bag27
(g333
g32
(dp537
VUserName
p538
V@307b86e1222960348d1f1c7d4de1eeed915d03ddd6033ef99f6a5ff3724ecd0a
p539
sVRemarkPYQuanPin
p540
g45
sVDisplayName
p541
V\u738b\u4e9a\u6cfd
p542
sVKeyWord
p543
g45
sVPYInitial
p544
g45
sVUin
p545
I0
sg428
g43
sVMemberStatus
p546
I0
sVPYQuanPin
p547
g45
sVRemarkPYInitial
p548
g45
sVNickName
p549
V\u4e0d\u5fd8\u521d\u5fc3
p550
sVAttrStatus
p551
I105021
stp552
Rp553
I1
bag27
(g333
g32
(dp554
VUserName
p555
V@12804a5cee148c428d0b76ecc4957f3871e8175d74a0a49413b87aa8a0699581
p556
sVRemarkPYQuanPin
p557
g45
sVDisplayName
p558
g45
sVKeyWord
p559
g45
sVPYInitial
p560
g45
sVUin
p561
I0
sg428
g43
sVMemberStatus
p562
I0
sVPYQuanPin
p563
g45
sVRemarkPYInitial
p564
g45
sVNickName
p565
V\u7f57\u632f\u98de
p566
sVAttrStatus
p567
I233661
stp568
Rp569
I1
bag27
(g333
g32
(dp570
VUserName
p571
V@23ae426a40b74cbbb2fb1ed5bcda7a79edb8e9bc8554dda1611e8623dd85219b
p572
sVRemarkPYQuanPin
p573
g45
sVDisplayName
p574
g45
sVKeyWord
p575
g45
sVPYInitial
p576
g45
sVUin
p577
I0
sg428
g43
sVMemberStatus
p578
I0
sVPYQuanPin
p579
g45
sVRemarkPYInitial
p580
g45
sVNickName
p581
Vweng
p582
sVAttrStatus
p583
I33655231
stp584
Rp585
I1
bag27
(g333
g32
(dp586
VUserName
p587
V@83f5695ae1ab27df10a44b173adf910ef92e2f260f7926ce5500e2f8823e4cb7
p588
sVRemarkPYQuanPin
p589
g45
sVDisplayName
p590
Vdouble
p591
sVKeyWord
p592
g45
sVPYInitial
p593
g45
sVUin
p594
I0
sg428
g43
sVMemberStatus
p595
I0
sVPYQuanPin
p596
g45
sVRemarkPYInitial
p597
g45
sVNickName
p598
VDouble\u0e08\u0e38\u0e4a\u0e1a
p599
sVAttrStatus
p600
I102525
stp601
Rp602
I1
bag27
(g333
g32
(dp603
VUserName
p604
V@9c159fdade4f2084e760bcc3b95441397e6c0e8d7c5d4d4482b4e84b77e2bb1a
p605
sVRemarkPYQuanPin
p606
g45
sVDisplayName
p607
g45
sVKeyWord
p608
g45
sVPYInitial
p609
g45
sVUin
p610
I0
sg428
g43
sVMemberStatus
p611
I0
sVPYQuanPin
p612
g45
sVRemarkPYInitial
p613
g45
sVNickName
p614
VY.kp  \U0001f31f
p615
sVAttrStatus
p616
I16879717
stp617
Rp618
I1
bag27
(g333
g32
(dp619
VUserName
p620
V@94e5e8691105ffbcef30637d9429c77111959e92e69b00cbe1e8ca84eb733686
p621
sVRemarkPYQuanPin
p622
g45
sVDisplayName
p623
g45
sVKeyWord
p624
g45
sVPYInitial
p625
g45
sVUin
p626
I0
sg428
g43
sVMemberStatus
p627
I0
sVPYQuanPin
p628
g45
sVRemarkPYInitial
p629
g45
sVNickName
p630
VJason \u0e08\u0e38\u0e4a\u0e1a
p631
sVAttrStatus
p632
I16889917
stp633
Rp634
I1
bag27
(g333
g32
(dp635
VUserName
p636
V@6ecfe825334cfbb4cd066b97009f9abbb327de151aa1ac86e426a42fd6e1ccf6
p637
sVRemarkPYQuanPin
p638
g45
sVDisplayName
p639
g45
sVKeyWord
p640
g45
sVPYInitial
p641
g45
sVUin
p642
I0
sg428
g43
sVMemberStatus
p643
I0
sVPYQuanPin
p644
g45
sVRemarkPYInitial
p645
g45
sVNickName
p646
VA-R.Shoes
p647
sVAttrStatus
p648
I102661
stp649
Rp650
I1
bag27
(g333
g32
(dp651
VUserName
p652
V@43c56df85455681207035d9ad4c194846c493a66854a7a780dca9d806cf06401
p653
sVRemarkPYQuanPin
p654
g45
sVDisplayName
p655
g45
sVKeyWord
p656
g45
sVPYInitial
p657
g45
sVUin
p658
I0
sg428
g43
sVMemberStatus
p659
I0
sVPYQuanPin
p660
g45
sVRemarkPYInitial
p661
g45
sVNickName
p662
V\u7b80\u5355\u70b9\u597d
p663
sVAttrStatus
p664
I98789
stp665
Rp666
I1
bag27
(g333
g32
(dp667
VUserName
p668
V@c1b2b65b0161c786beecb5e4d1d76034406d045b11b36f3ba7737a1c3504898a
p669
sVRemarkPYQuanPin
p670
g45
sVDisplayName
p671
g45
sVKeyWord
p672
g45
sVPYInitial
p673
g45
sVUin
p674
I0
sg428
g43
sVMemberStatus
p675
I0
sVPYQuanPin
p676
g45
sVRemarkPYInitial
p677
g45
sVNickName
p678
V\u674e\u7ade\u8d85
p679
sVAttrStatus
p680
I16908349
stp681
Rp682
I1
bag27
(g333
g32
(dp683
g421
g422
sg423
g45
sg424
g45
sg425
g45
sg426
g45
sg427
I0
sg428
g43
sg429
I0
sg430
g45
sg431
g45
sg432
g433
sg434
I234309
stp684
Rp685
I1
batp686
Rp687
I1
bsVPYQuanPin
p688
Vshadiaowangyouqun
p689
sVRemarkPYInitial
p690
g45
sVSex
p691
I0
sVAppAccountFlag
p692
I0
sVVerifyFlag
p693
I0
sVProvince
p694
g45
sVKeyWord
p695
g45
sVRemarkName
p696
g45
sVPYInitial
p697
VSDWYQ
p698
sVIsOwner
p699
I0
sVChatRoomId
p700
I0
sVContactType
p701
I0
sVHideInputBarFlag
p702
I0
sVEncryChatRoomId
p703
V@cc5af3efccf1f3cfe3eec50260eb5612
p704
sVAttrStatus
p705
I0
sVSnsFlag
p706
I0
sVMemberCount
p707
I16
sVOwnerUin
p708
I0
sVAlias
p709
g45
sS'IsAdmin'
p710
NsVSignature
p711
g45
sVContactFlag
p712
I2
sVNickName
p713
V\u6c99\u96d5\u7f51\u53cb\u7fa4
p714
sVChatRoomOwner
p715
V@22bd049543384634f62cb8bb768f3ae80487da44a7016d4b6b485b81ffc9f2eb
p716
sVRemarkPYQuanPin
p717
g45
sVHeadImgUrl
p718
V/cgi-bin/mmwebwx-bin/webwxgetheadimg?seq=0&username=@@471826620dc0dac77b3b725958cf5e1c6f548bf020fa1dd694e79ae679f4e1ca&skey=@crypt_6d8a0cff_cfdb4b1967d711b5d291a77822bd7d79
p719
sVUin
p720
I0
sVStarFriend
p721
I0
sVStatues
p722
I1
sVHeadImgUpdateFlag
p723
I1
stp724
Rp725
I1
bag27
(g325
g32
(dp726
VUserName
p727
V@@bf03535106cad8c8cdbe0470c78179600b64558ecc321308d6f63f2eeaab9603
p728
sVCity
p729
g45
sVSnsFlag
p730
I0
sVMemberCount
p731
I5
sS'Self'
p732
g27
(g333
g32
(dp733
VUserName
p734
V@d7789d70cbe70558812ab5a7452102ed7a85dd600e3644cf2429965c99095578
p735
sVRemarkPYQuanPin
p736
g45
sVDisplayName
p737
g45
sVKeyWord
p738
g45
sVPYInitial
p739
g45
sVUin
p740
I0
sS'MemberList'
p741
g43
sVMemberStatus
p742
I0
sVPYQuanPin
p743
g45
sVRemarkPYInitial
p744
g45
sVNickName
p745
Vrobot
p746
sVAttrStatus
p747
I234309
stp748
Rp749
I1
bsS'OwnerUin'
p750
I0
sVMemberList
p751
g27
(g28
g29
(lp752
g27
(g333
g32
(dp753
VUserName
p754
V@12804a5cee148c428d0b76ecc4957f3871e8175d74a0a49413b87aa8a0699581
p755
sVRemarkPYQuanPin
p756
g45
sVDisplayName
p757
g45
sVKeyWord
p758
g45
sVPYInitial
p759
g45
sVUin
p760
I0
sg741
g43
sVMemberStatus
p761
I0
sVPYQuanPin
p762
g45
sVRemarkPYInitial
p763
g45
sVNickName
p764
V\u7f57\u632f\u98de
p765
sVAttrStatus
p766
I233661
stp767
Rp768
I1
bag27
(g333
g32
(dp769
VUserName
p770
V@2269c69f7e1c2abb80e8f8e7129e77275a5a4b04a3ed6ad112052f471cf7dbc0
p771
sVRemarkPYQuanPin
p772
g45
sVDisplayName
p773
g45
sVKeyWord
p774
g45
sVPYInitial
p775
g45
sVUin
p776
I0
sg741
g43
sVMemberStatus
p777
I0
sVPYQuanPin
p778
g45
sVRemarkPYInitial
p779
g45
sVNickName
p780
V\u963f\u5367\U0001f62f
p781
sVAttrStatus
p782
I102497
stp783
Rp784
I1
bag27
(g333
g32
(dp785
VUserName
p786
V@43c56df85455681207035d9ad4c194846c493a66854a7a780dca9d806cf06401
p787
sVRemarkPYQuanPin
p788
g45
sVDisplayName
p789
g45
sVKeyWord
p790
g45
sVPYInitial
p791
g45
sVUin
p792
I0
sg741
g43
sVMemberStatus
p793
I0
sVPYQuanPin
p794
g45
sVRemarkPYInitial
p795
g45
sVNickName
p796
V\u7b80\u5355\u70b9\u597d
p797
sVAttrStatus
p798
I98789
stp799
Rp800
I1
bag27
(g333
g32
(dp801
VUserName
p802
V@23ae426a40b74cbbb2fb1ed5bcda7a79edb8e9bc8554dda1611e8623dd85219b
p803
sVRemarkPYQuanPin
p804
g45
sVDisplayName
p805
g45
sVKeyWord
p806
g45
sVPYInitial
p807
g45
sVUin
p808
I0
sg741
g43
sVMemberStatus
p809
I0
sVPYQuanPin
p810
g45
sVRemarkPYInitial
p811
g45
sVNickName
p812
Vweng
p813
sVAttrStatus
p814
I33655231
stp815
Rp816
I1
bag27
(g333
g32
(dp817
g734
g735
sg736
g45
sg737
g45
sg738
g45
sg739
g45
sg740
I0
sg741
g43
sg742
I0
sg743
g45
sg744
g45
sg745
g746
sg747
I234309
stp818
Rp819
I1
batp820
Rp821
I1
bsVAlias
p822
g45
sS'IsAdmin'
p823
NsVSignature
p824
g45
sVContactFlag
p825
I2
sVNickName
p826
V\u7559\u7ea7\u4e00\u73ed
p827
sVChatRoomOwner
p828
V@43c56df85455681207035d9ad4c194846c493a66854a7a780dca9d806cf06401
p829
sVVerifyFlag
p830
I0
sVProvince
p831
g45
sVStatues
p832
I1
sVKeyWord
p833
g45
sVRemarkName
p834
g45
sVHeadImgUrl
p835
V/cgi-bin/mmwebwx-bin/webwxgetheadimg?seq=0&username=@@bf03535106cad8c8cdbe0470c78179600b64558ecc321308d6f63f2eeaab9603&skey=@crypt_6d8a0cff_cfdb4b1967d711b5d291a77822bd7d79
p836
sVSex
p837
I0
sVContactType
p838
I0
sVHideInputBarFlag
p839
I0
sVAttrStatus
p840
I0
sVHeadImgUpdateFlag
p841
I1
stp842
Rp843
I1
bag27
(g325
g32
(dp844
VUserName
p845
V@@b4f3bfcc661f1d64c532f11e0b86fd1207dcc20a4efa64e36b61c94bc2a7ac83
p846
sVCity
p847
g45
sVSnsFlag
p848
I0
sVMemberCount
p849
I7
sg732
g27
(g333
g32
(dp850
VUserName
p851
V@d7789d70cbe70558812ab5a7452102ed7a85dd600e3644cf2429965c99095578
p852
sVRemarkPYQuanPin
p853
g45
sVDisplayName
p854
g45
sVKeyWord
p855
g45
sVPYInitial
p856
g45
sVUin
p857
I0
sg741
g43
sVMemberStatus
p858
I0
sVPYQuanPin
p859
g45
sVRemarkPYInitial
p860
g45
sVNickName
p861
Vrobot
p862
sVAttrStatus
p863
I234309
stp864
Rp865
I1
bsg750
I0
sVMemberList
p866
g27
(g28
g29
(lp867
g27
(g333
g32
(dp868
VUserName
p869
V@83f5695ae1ab27df10a44b173adf910ef92e2f260f7926ce5500e2f8823e4cb7
p870
sVRemarkPYQuanPin
p871
g45
sVDisplayName
p872
VFondDream-\u8d35
p873
sVKeyWord
p874
g45
sVPYInitial
p875
g45
sVUin
p876
I0
sg741
g43
sVMemberStatus
p877
I0
sVPYQuanPin
p878
g45
sVRemarkPYInitial
p879
g45
sVNickName
p880
VDouble\u0e08\u0e38\u0e4a\u0e1a
p881
sVAttrStatus
p882
I102525
stp883
Rp884
I1
bag27
(g333
g32
(dp885
VUserName
p886
V@2728ceb7852584b2063cff62e24eed894d7b0307144d7069739e9731a7a4e92c
p887
sVRemarkPYQuanPin
p888
g45
sVDisplayName
p889
V\u6912\u76d0\u86cb\u767d
p890
sVKeyWord
p891
g45
sVPYInitial
p892
g45
sVUin
p893
I0
sg741
g43
sVMemberStatus
p894
I0
sVPYQuanPin
p895
g45
sVRemarkPYInitial
p896
g45
sVNickName
p897
V\u6881\u534a\u5929\u513f
p898
sVAttrStatus
p899
I76901
stp900
Rp901
I1
bag27
(g333
g32
(dp902
VUserName
p903
V@55d78ab338dd30fcd9d6e52c2050ed10
p904
sVRemarkPYQuanPin
p905
g45
sVDisplayName
p906
V\u0e08\u0e38\u0e4a\u0e1a\u79cb\u7ea2\u5979\u7238\u7238
p907
sVKeyWord
p908
g45
sVPYInitial
p909
g45
sVUin
p910
I0
sg741
g43
sVMemberStatus
p911
I0
sVPYQuanPin
p912
g45
sVRemarkPYInitial
p913
g45
sVNickName
p914
V\u5cf0\u4fca\u9a6c
p915
sVAttrStatus
p916
I2147586145
stp917
Rp918
I1
bag27
(g333
g32
(dp919
VUserName
p920
V@5e61686a7b715e3e7ddf61e1fee3a843d9164dca5e6a051db771271b688da555
p921
sVRemarkPYQuanPin
p922
g45
sVDisplayName
p923
V\u5927\u540e\u5929\u4f1a\u66f4\u597d
p924
sVKeyWord
p925
g45
sVPYInitial
p926
g45
sVUin
p927
I0
sg741
g43
sVMemberStatus
p928
I0
sVPYQuanPin
p929
g45
sVRemarkPYInitial
p930
g45
sVNickName
p931
V\u952e\u76d8\u4e0a\u7684\u821e\u8005
p932
sVAttrStatus
p933
I16822375
stp934
Rp935
I1
bag27
(g333
g32
(dp936
VUserName
p937
V@498250f7bae33bc28fb0542685db1c842df84780fea333fe60387593a0bbdc35
p938
sVRemarkPYQuanPin
p939
g45
sVDisplayName
p940
V\u540e\u5929\u4f1a\u66f4\u597d
p941
sVKeyWord
p942
g45
sVPYInitial
p943
g45
sVUin
p944
I0
sg741
g43
sVMemberStatus
p945
I0
sVPYQuanPin
p946
g45
sVRemarkPYInitial
p947
g45
sVNickName
p948
V\u6881\u5c71\u597d\u6c49
p949
sVAttrStatus
p950
I102503
stp951
Rp952
I1
bag27
(g333
g32
(dp953
VUserName
p954
V@6983bef1db5ab098b89cf845e0cc39f2cf6df3e0b24b57619d174d22b1316c37
p955
sVRemarkPYQuanPin
p956
g45
sVDisplayName
p957
V\u94b1\u96be\u6323\uff0c\u5c4e\u96be\u5403\u3002
p958
sVKeyWord
p959
g45
sVPYInitial
p960
g45
sVUin
p961
I0
sg741
g43
sVMemberStatus
p962
I0
sVPYQuanPin
p963
g45
sVRemarkPYInitial
p964
g45
sVNickName
p965
V\u5f53\u521d\u5c31\u4e0d\u8be5\u4e0b\u51e1\U0001f483\U0001f3fb
p966
sVAttrStatus
p967
I2147563623
stp968
Rp969
I1
bag27
(g333
g32
(dp970
g851
g852
sg853
g45
sg854
g45
sg855
g45
sg856
g45
sg857
I0
sg741
g43
sg858
I0
sg859
g45
sg860
g45
sg861
g862
sg863
I234309
stp971
Rp972
I1
batp973
Rp974
I1
bsVAlias
p975
g45
sg823
NsVSignature
p976
g45
sVContactFlag
p977
I2
sVNickName
p978
V\u4eba\u591a\u4eba\u5c11 \u6c14\u52bf\u4e0d\u5012
p979
sVChatRoomOwner
p980
V@83f5695ae1ab27df10a44b173adf910ef92e2f260f7926ce5500e2f8823e4cb7
p981
sVVerifyFlag
p982
I0
sVProvince
p983
g45
sVStatues
p984
I1
sVKeyWord
p985
g45
sVRemarkName
p986
g45
sVHeadImgUrl
p987
V/cgi-bin/mmwebwx-bin/webwxgetheadimg?seq=0&username=@@b4f3bfcc661f1d64c532f11e0b86fd1207dcc20a4efa64e36b61c94bc2a7ac83&skey=@crypt_6d8a0cff_cfdb4b1967d711b5d291a77822bd7d79
p988
sVSex
p989
I0
sVContactType
p990
I0
sVHideInputBarFlag
p991
I0
sVAttrStatus
p992
I0
sVHeadImgUpdateFlag
p993
I1
stp994
Rp995
I1
batp996
Rp997
I1
bsS'nickName'
p998
g66
sS'mpList'
p999
g27
(g28
g29
(lp1000
g27
(citchat.storage.templates
MassivePlatform
p1001
g32
(dp1002
VUserName
p1003
V@17ac78f6285088398065eda318400f8b
p1004
sVCity
p1005
V\u5e7f\u5dde
p1006
sVSnsFlag
p1007
I0
sVDisplayName
p1008
g45
sVUniFriend
p1009
I0
sVMemberCount
p1010
I0
sVOwnerUin
p1011
I0
sVMemberList
p1012
g43
sVAlias
p1013
g45
sVPYQuanPin
p1014
Vweixinyundong
p1015
sVSignature
p1016
V\u4e5f\u8bb8\u4f60\u65e9\u5df2\u4e60\u60ef\u4e00\u4e2a\u4eba\u8fd0\u52a8\u7684\u5b64\u72ec\uff0c\u5374\u4e5f\u5076\u5c14\u6e34\u671b\u5f97\u5230\u8d5e\u8d4f\u3002\u52a0\u5165\u5fae\u4fe1\u8fd0\u52a8\uff0c\u548c\u670b\u53cb\u4e00\u8d77\u70b9\u8d5e\u4e92\u52a8\u3001\u62a2\u5360\u5c01\u9762\uff0c\u5206\u4eab\u8fd0\u52a8\u7684\u5feb\u4e50\u3002
p1017
sVRemarkPYInitial
p1018
g45
sVContactFlag
p1019
I3
sVUin
p1020
I0
sVNickName
p1021
V\u5fae\u4fe1\u8fd0\u52a8
p1022
sVAppAccountFlag
p1023
I0
sVVerifyFlag
p1024
I24
sVRemarkPYQuanPin
p1025
g45
sVHeadImgUrl
p1026
V/cgi-bin/mmwebwx-bin/webwxgeticon?seq=652523116&username=@17ac78f6285088398065eda318400f8b&skey=@crypt_6d8a0cff_cfdb4b1967d711b5d291a77822bd7d79
p1027
sVKeyWord
p1028
Vgh_
p1029
sVProvince
p1030
V\u5e7f\u4e1c
p1031
sVPYInitial
p1032
VWXYD
p1033
sVRemarkName
p1034
g45
sVStarFriend
p1035
I0
sVSex
p1036
I0
sVIsOwner
p1037
I0
sVHideInputBarFlag
p1038
I0
sVChatRoomId
p1039
I0
sVEncryChatRoomId
p1040
g45
sVAttrStatus
p1041
I0
sVStatues
p1042
I0
stp1043
Rp1044
I1
bag27
(g1001
g32
(dp1045
VUserName
p1046
V@3102f5d14cc90b5491064ba2ebccc0d8
p1047
sVCity
p1048
V\u9042\u5b81
p1049
sVSnsFlag
p1050
I0
sVDisplayName
p1051
g45
sVUniFriend
p1052
I0
sVMemberCount
p1053
I0
sVOwnerUin
p1054
I0
sVMemberList
p1055
g43
sVAlias
p1056
g45
sVPYQuanPin
p1057
VCKmadengdoumimiaowumingxiulianhongsuyanzhibo
p1058
sVSignature
p1059
V\u3010\u957f\u671f\u514d\u8d39\u5206\u4eab\u5404\u5927\u76f4\u64ad\u5e73\u53f0\u6700\u65b0\u4e0b\u8f7d\u5730\u5740\uff0c\u5173\u6ce8\u4e00\u4e0b\u5730\u5740\u5230\u624b\u3011
p1060
sVRemarkPYInitial
p1061
g45
sVContactFlag
p1062
I3
sVUin
p1063
I0
sVNickName
p1064
VCK\u6469\u767b\u6296\u54aa\u55b5\u6c61\u540d\u79c0\u8138\u7ea2\u7d20\u989c\u76f4\u64ad
p1065
sVAppAccountFlag
p1066
I0
sVVerifyFlag
p1067
I8
sVRemarkPYQuanPin
p1068
g45
sVHeadImgUrl
p1069
V/cgi-bin/mmwebwx-bin/webwxgeticon?seq=667361146&username=@3102f5d14cc90b5491064ba2ebccc0d8&skey=@crypt_6d8a0cff_cfdb4b1967d711b5d291a77822bd7d79
p1070
sVKeyWord
p1071
Vgh_
p1072
sVProvince
p1073
V\u56db\u5ddd
p1074
sVPYInitial
p1075
VCKMDDMMWMXLHSYZB
p1076
sVRemarkName
p1077
g45
sVStarFriend
p1078
I0
sVSex
p1079
I0
sVIsOwner
p1080
I0
sVHideInputBarFlag
p1081
I0
sVChatRoomId
p1082
I0
sVEncryChatRoomId
p1083
g45
sVAttrStatus
p1084
I0
sVStatues
p1085
I0
stp1086
Rp1087
I1
bag27
(g1001
g32
(dp1088
VUserName
p1089
V@a3135871cc6f0ec5b2b867eb431e53f1
p1090
sVCity
p1091
V\u5e7f\u5dde
p1092
sVSnsFlag
p1093
I0
sVDisplayName
p1094
g45
sVUniFriend
p1095
I0
sVMemberCount
p1096
I0
sVOwnerUin
p1097
I0
sVMemberList
p1098
g43
sVAlias
p1099
g45
sVPYQuanPin
p1100
Vweixinyouhu
p1101
sVSignature
p1102
V\u5173\u6ce8\u5fae\u4fe1\u6e38\u620f\u5b98\u65b9\u516c\u4f17\u5e10\u53f7\uff0c\u5373\u65f6\u6536\u53d6\u6e38\u620f\u8baf\u606f\uff0c\u8fd8\u80fd\u67e5\u770b\u5404\u6e38\u620f\u653b\u7565\uff0c\u62a2\u5148\u4f53\u9a8c\u6d3b\u52a8\uff01
p1103
sVRemarkPYInitial
p1104
g45
sVContactFlag
p1105
I3
sVUin
p1106
I0
sVNickName
p1107
V\u5fae\u4fe1\u6e38\u620f
p1108
sVAppAccountFlag
p1109
I0
sVVerifyFlag
p1110
I24
sVRemarkPYQuanPin
p1111
g45
sVHeadImgUrl
p1112
V/cgi-bin/mmwebwx-bin/webwxgeticon?seq=667361772&username=@a3135871cc6f0ec5b2b867eb431e53f1&skey=@crypt_6d8a0cff_cfdb4b1967d711b5d291a77822bd7d79
p1113
sVKeyWord
p1114
Vgh_
p1115
sVProvince
p1116
V\u5e7f\u4e1c
p1117
sVPYInitial
p1118
VWXYH
p1119
sVRemarkName
p1120
g45
sVStarFriend
p1121
I0
sVSex
p1122
I0
sVIsOwner
p1123
I0
sVHideInputBarFlag
p1124
I0
sVChatRoomId
p1125
I0
sVEncryChatRoomId
p1126
g45
sVAttrStatus
p1127
I0
sVStatues
p1128
I0
stp1129
Rp1130
I1
bag27
(g1001
g32
(dp1131
VUserName
p1132
V@ddd55c35d7ef0162bdc9e8ef942e1781
p1133
sVCity
p1134
V\u4fe1\u9633
p1135
sVSnsFlag
p1136
I0
sVDisplayName
p1137
g45
sVUniFriend
p1138
I0
sVMemberCount
p1139
I0
sVOwnerUin
p1140
I0
sVMemberList
p1141
g43
sVAlias
p1142
g45
sVPYQuanPin
p1143
Vlibingjiaoyu
p1144
sVSignature
p1145
V\u670d\u52a1\u548c\u5ba3\u4f20\u516c\u53f8\u4e1a\u52a1\u7684\u76f8\u5173\u4fe1\u606f\uff0c\u4e0d\u5b9a\u65f6\u53d1\u5e03\u4f20\u7edf\u6559\u80b2\u7f8e\u6587
p1146
sVRemarkPYInitial
p1147
g45
sVContactFlag
p1148
I1
sVUin
p1149
I0
sVNickName
p1150
V\u5389\u5175\u6559\u80b2
p1151
sVAppAccountFlag
p1152
I0
sVVerifyFlag
p1153
I24
sVRemarkPYQuanPin
p1154
g45
sVHeadImgUrl
p1155
V/cgi-bin/mmwebwx-bin/webwxgeticon?seq=667366688&username=@ddd55c35d7ef0162bdc9e8ef942e1781&skey=@crypt_6d8a0cff_cfdb4b1967d711b5d291a77822bd7d79
p1156
sVKeyWord
p1157
Vgh_
p1158
sVProvince
p1159
V\u6cb3\u5357
p1160
sVPYInitial
p1161
VLBJY
p1162
sVRemarkName
p1163
g45
sVStarFriend
p1164
I0
sVSex
p1165
I0
sVIsOwner
p1166
I0
sVHideInputBarFlag
p1167
I0
sVChatRoomId
p1168
I0
sVEncryChatRoomId
p1169
g45
sVAttrStatus
p1170
I0
sVStatues
p1171
I0
stp1172
Rp1173
I1
batp1174
Rp1175
I1
bssS'loginInfo'
p1176
(dp1177
S'SyncKey'
p1178
(dp1179
VCount
p1180
I8
sVList
p1181
(lp1182
(dp1183
VVal
p1184
I686661235
sVKey
p1185
I1
sa(dp1186
VVal
p1187
I686661714
sVKey
p1188
I2
sa(dp1189
VVal
p1190
I686661158
sVKey
p1191
I3
sa(dp1192
VVal
p1193
I686661519
sVKey
p1194
I11
sa(dp1195
VVal
p1196
I1558078094
sVKey
p1197
I201
sa(dp1198
VVal
p1199
I1558077189
sVKey
p1200
I203
sa(dp1201
VVal
p1202
I1558075548
sVKey
p1203
I1000
sa(dp1204
VVal
p1205
I1558075875
sVKey
p1206
I1001
sassS'syncUrl'
p1207
S'https://webpush.wx2.qq.com/cgi-bin/mmwebwx-bin'
p1208
sS'skey'
p1209
V@crypt_6d8a0cff_cfdb4b1967d711b5d291a77822bd7d79
p1210
sS'wxuin'
p1211
V456577804
p1212
sS'synckey'
p1213
S'1_686661235|2_686661714|3_686661158|11_686661519|201_1558078094|203_1558077189|1000_1558075548|1001_1558075875'
p1214
sS'url'
p1215
Vhttps://wx2.qq.com/cgi-bin/mmwebwx-bin
p1216
sS'pass_ticket'
p1217
VRChfJ6gjizIXMzIYDYMfvWlK03nkDZ3ZcKrvcH%2FW6mxYPkuCPZOpCYATqWxeAHJ5
p1218
sS'wxsid'
p1219
Vq/sdqTJNg/7q2olr
p1220
sS'BaseRequest'
p1221
(dp1222
g47
g1212
sS'Skey'
p1223
g1210
sS'DeviceID'
p1224
g1218
sS'Sid'
p1225
g1220
ssS'User'
p1226
g27
(g31
g32
(dp1227
g34
g24
sg35
g36
sg37
g36
sg38
I0
sg40
g43
sg44
g45
sg46
g45
sg70
I1
sg48
I0
sg49
I0
sg50
g36
sg51
g36
sg52
g45
sg53
g45
sg54
I0
sg55
I0
sg56
I1
sg57
g36
sg58
I0
sg61
I0
sg59
I0
sg60
I0
sg39
I0
sg62
g36
sg63
g45
sg64
I0
sg65
g66
sg67
g45
sg68
g69
sg47
I456577804
sg71
I0
sg72
I0
stp1228
Rp1229
I1
bsS'fileUrl'
p1230
S'https://file.wx2.qq.com/cgi-bin/mmwebwx-bin'
p1231
sS'InviteStartCount'
p1232
I40
sS'deviceid'
p1233
S'e498975203662124'
p1234
ss.